; Function Attrs: mustprogress uwtable
define dso_local void @_ZN4Luau20DataFlowGraphBuilder9visitTypeEPNS_15AstTypeFunctionE(ptr noundef nonnull align 8 dereferenceable(336) %0, ptr noundef readonly captures(none) %1) local_unnamed_addr #2 align 2 {
  %3 = getelementptr inbounds nuw i8, ptr %1, i64 48
  %.sroa.01.0.copyload = load ptr, ptr %3, align 8, !tbaa !347
  %.sroa.22.0..sroa_idx = getelementptr inbounds nuw i8, ptr %1, i64 56
  %.sroa.22.0.copyload = load i64, ptr %.sroa.22.0..sroa_idx, align 8, !tbaa !42
  %4 = getelementptr inbounds nuw ptr, ptr %.sroa.01.0.copyload, i64 %.sroa.22.0.copyload
  %.not12.i = icmp eq i64 %.sroa.22.0.copyload, 0
  br i1 %.not12.i, label %_ZN4Luau20DataFlowGraphBuilder13visitGenericsENS_8AstArrayIPNS_14AstGenericTypeEEE.exit, label %.lr.ph.i

.lr.ph.i:                                         ; preds = %2, %9
  %.013.i = phi ptr [ %10, %9 ], [ %.sroa.01.0.copyload, %2 ]
  %5 = load ptr, ptr %.013.i, align 8, !tbaa !349
  %6 = getelementptr inbounds nuw i8, ptr %5, i64 40
  %7 = load ptr, ptr %6, align 8, !tbaa !351
  %.not10.i = icmp eq ptr %7, null
  br i1 %.not10.i, label %9, label %8

8:                                                ; preds = %.lr.ph.i
  tail call void @_ZN4Luau20DataFlowGraphBuilder9visitTypeEPNS_7AstTypeE(ptr noundef nonnull align 8 dereferenceable(336) %0, ptr noundef nonnull %7)
  br label %9

9:                                                ; preds = %8, %.lr.ph.i
  %10 = getelementptr inbounds nuw i8, ptr %.013.i, i64 8
  %.not.i = icmp eq ptr %10, %4
  br i1 %.not.i, label %_ZN4Luau20DataFlowGraphBuilder13visitGenericsENS_8AstArrayIPNS_14AstGenericTypeEEE.exit, label %.lr.ph.i

_ZN4Luau20DataFlowGraphBuilder13visitGenericsENS_8AstArrayIPNS_14AstGenericTypeEEE.exit: ; preds = %9, %2
  %11 = getelementptr inbounds nuw i8, ptr %1, i64 64
  %.sroa.0.0.copyload = load ptr, ptr %11, align 8, !tbaa !353
  %.sroa.2.0..sroa_idx = getelementptr inbounds nuw i8, ptr %1, i64 72
  %.sroa.2.0.copyload = load i64, ptr %.sroa.2.0..sroa_idx, align 8, !tbaa !42
  %12 = getelementptr inbounds nuw ptr, ptr %.sroa.0.0.copyload, i64 %.sroa.2.0.copyload
  %.not12.i7 = icmp eq i64 %.sroa.2.0.copyload, 0
  br i1 %.not12.i7, label %_ZN4Luau20DataFlowGraphBuilder17visitGenericPacksENS_8AstArrayIPNS_18AstGenericTypePackEEE.exit, label %.lr.ph.i8

.lr.ph.i8:                                        ; preds = %_ZN4Luau20DataFlowGraphBuilder13visitGenericsENS_8AstArrayIPNS_14AstGenericTypeEEE.exit, %17
  %.013.i9 = phi ptr [ %18, %17 ], [ %.sroa.0.0.copyload, %_ZN4Luau20DataFlowGraphBuilder13visitGenericsENS_8AstArrayIPNS_14AstGenericTypeEEE.exit ]
  %13 = load ptr, ptr %.013.i9, align 8, !tbaa !355
  %14 = getelementptr inbounds nuw i8, ptr %13, i64 40
  %15 = load ptr, ptr %14, align 8, !tbaa !357
  %.not10.i10 = icmp eq ptr %15, null
  br i1 %.not10.i10, label %17, label %16

16:                                               ; preds = %.lr.ph.i8
  tail call void @_ZN4Luau20DataFlowGraphBuilder13visitTypePackEPNS_11AstTypePackE(ptr noundef nonnull align 8 dereferenceable(336) %0, ptr noundef nonnull %15)
  br label %17

17:                                               ; preds = %16, %.lr.ph.i8
  %18 = getelementptr inbounds nuw i8, ptr %.013.i9, i64 8
  %.not.i11 = icmp eq ptr %18, %12
  br i1 %.not.i11, label %_ZN4Luau20DataFlowGraphBuilder17visitGenericPacksENS_8AstArrayIPNS_18AstGenericTypePackEEE.exit, label %.lr.ph.i8

_ZN4Luau20DataFlowGraphBuilder17visitGenericPacksENS_8AstArrayIPNS_18AstGenericTypePackEEE.exit: ; preds = %17, %_ZN4Luau20DataFlowGraphBuilder13visitGenericsENS_8AstArrayIPNS_14AstGenericTypeEEE.exit
  %19 = getelementptr inbounds nuw i8, ptr %1, i64 80
  %.sroa.023.0.copyload = load ptr, ptr %19, align 8, !tbaa !378
  %.sroa.2.0..sroa_idx24 = getelementptr inbounds nuw i8, ptr %1, i64 88
  %.sroa.2.0.copyload25 = load i64, ptr %.sroa.2.0..sroa_idx24, align 8, !tbaa !42
  %.sroa.3.0..sroa_idx = getelementptr inbounds nuw i8, ptr %1, i64 96
  %.sroa.3.0.copyload = load ptr, ptr %.sroa.3.0..sroa_idx, align 8, !tbaa !380
  %20 = getelementptr inbounds nuw ptr, ptr %.sroa.023.0.copyload, i64 %.sroa.2.0.copyload25
  %.not10.i12 = icmp eq i64 %.sroa.2.0.copyload25, 0
  br i1 %.not10.i12, label %._crit_edge.i, label %.lr.ph.i13

._crit_edge.i:                                    ; preds = %.lr.ph.i13, %_ZN4Luau20DataFlowGraphBuilder17visitGenericPacksENS_8AstArrayIPNS_18AstGenericTypePackEEE.exit
  %.not9.i = icmp eq ptr %.sroa.3.0.copyload, null
  br i1 %.not9.i, label %_ZN4Luau20DataFlowGraphBuilder13visitTypeListENS_11AstTypeListE.exit, label %23

.lr.ph.i13:                                       ; preds = %_ZN4Luau20DataFlowGraphBuilder17visitGenericPacksENS_8AstArrayIPNS_18AstGenericTypePackEEE.exit, %.lr.ph.i13
  %.011.i = phi ptr [ %22, %.lr.ph.i13 ], [ %.sroa.023.0.copyload, %_ZN4Luau20DataFlowGraphBuilder17visitGenericPacksENS_8AstArrayIPNS_18AstGenericTypePackEEE.exit ]
  %21 = load ptr, ptr %.011.i, align 8, !tbaa !381
  tail call void @_ZN4Luau20DataFlowGraphBuilder9visitTypeEPNS_7AstTypeE(ptr noundef nonnull align 8 dereferenceable(336) %0, ptr noundef %21)
  %22 = getelementptr inbounds nuw i8, ptr %.011.i, i64 8
  %.not.i14 = icmp eq ptr %22, %20
  br i1 %.not.i14, label %._crit_edge.i, label %.lr.ph.i13

23:                                               ; preds = %._crit_edge.i
  tail call void @_ZN4Luau20DataFlowGraphBuilder13visitTypePackEPNS_11AstTypePackE(ptr noundef nonnull align 8 dereferenceable(336) %0, ptr noundef nonnull %.sroa.3.0.copyload)
  br label %_ZN4Luau20DataFlowGraphBuilder13visitTypeListENS_11AstTypeListE.exit

_ZN4Luau20DataFlowGraphBuilder13visitTypeListENS_11AstTypeListE.exit: ; preds = %._crit_edge.i, %23
  %24 = getelementptr inbounds nuw i8, ptr %1, i64 120
  %.sroa.029.0.copyload = load ptr, ptr %24, align 8, !tbaa !378
  %.sroa.230.0..sroa_idx = getelementptr inbounds nuw i8, ptr %1, i64 128
  %.sroa.230.0.copyload = load i64, ptr %.sroa.230.0..sroa_idx, align 8, !tbaa !42
  %.sroa.331.0..sroa_idx = getelementptr inbounds nuw i8, ptr %1, i64 136
  %.sroa.331.0.copyload = load ptr, ptr %.sroa.331.0..sroa_idx, align 8, !tbaa !380
  %25 = getelementptr inbounds nuw ptr, ptr %.sroa.029.0.copyload, i64 %.sroa.230.0.copyload
  %.not10.i15 = icmp eq i64 %.sroa.230.0.copyload, 0
  br i1 %.not10.i15, label %._crit_edge.i19, label %.lr.ph.i16

._crit_edge.i19:                                  ; preds = %.lr.ph.i16, %_ZN4Luau20DataFlowGraphBuilder13visitTypeListENS_11AstTypeListE.exit
  %.not9.i20 = icmp eq ptr %.sroa.331.0.copyload, null
  br i1 %.not9.i20, label %_ZN4Luau20DataFlowGraphBuilder13visitTypeListENS_11AstTypeListE.exit21, label %28

.lr.ph.i16:                                       ; preds = %_ZN4Luau20DataFlowGraphBuilder13visitTypeListENS_11AstTypeListE.exit, %.lr.ph.i16
  %.011.i17 = phi ptr [ %27, %.lr.ph.i16 ], [ %.sroa.029.0.copyload, %_ZN4Luau20DataFlowGraphBuilder13visitTypeListENS_11AstTypeListE.exit ]
  %26 = load ptr, ptr %.011.i17, align 8, !tbaa !381
  tail call void @_ZN4Luau20DataFlowGraphBuilder9visitTypeEPNS_7AstTypeE(ptr noundef nonnull align 8 dereferenceable(336) %0, ptr noundef %26)
  %27 = getelementptr inbounds nuw i8, ptr %.011.i17, i64 8
  %.not.i18 = icmp eq ptr %27, %25
  br i1 %.not.i18, label %._crit_edge.i19, label %.lr.ph.i16

28:                                               ; preds = %._crit_edge.i19
  tail call void @_ZN4Luau20DataFlowGraphBuilder13visitTypePackEPNS_11AstTypePackE(ptr noundef nonnull align 8 dereferenceable(336) %0, ptr noundef nonnull %.sroa.331.0.copyload)
  br label %_ZN4Luau20DataFlowGraphBuilder13visitTypeListENS_11AstTypeListE.exit21

_ZN4Luau20DataFlowGraphBuilder13visitTypeListENS_11AstTypeListE.exit21: ; preds = %._crit_edge.i19, %28
  ret void
}